target datalayout = "e-m:e-p270:32:32-p271:32:32-p272:64:64-i64:64-i128:128-f80:128-n8:16:32:64-S128"
target triple = "x86_64-unknown-linux-gnu"

%"class.std::__cxx11::basic_string" = type { %"struct.std::__cxx11::basic_string<char>::_Alloc_hider", i64, %union.anon }
%"struct.std::__cxx11::basic_string<char>::_Alloc_hider" = type { ptr }
%union.anon = type { i64, [8 x i8] }
%struct.train_params_common = type <{ ptr, ptr, ptr, ptr, ptr, i8, [3 x i8], i32, i32, i32, i32, i32, i32, i32, i32, i8, i8, i8, i8, %"class.std::__cxx11::basic_string", i8, i8, i8, i8, i8, i8, i8, i8, i32, i32, float, float, i8, [3 x i8], i32, float, i32, i32, float, float, float, i32, float, float, float, float, [4 x i8] }>

; Function Attrs: mustprogress uwtable
define void @_Z28finish_processing_train_argsP19train_params_common(ptr noundef %params) #4 {
entry:
  %params.addr = alloca ptr, align 8
  store ptr %params, ptr %params.addr, align 8
  %0 = load ptr, ptr %params.addr, align 8
  %escape = getelementptr inbounds %struct.train_params_common, ptr %0, i32 0, i32 21
  %1 = load i8, ptr %escape, align 1
  %tobool = trunc i8 %1 to i1
  br i1 %tobool, label %if.then, label %if.end

if.then:                                          ; preds = %entry
  %2 = load ptr, ptr %params.addr, align 8
  %sample_start = getelementptr inbounds %struct.train_params_common, ptr %2, i32 0, i32 19
  call void @_Z15process_escapesRNSt7__cxx1112basic_stringIcSt11char_traitsIcESaIcEEE(ptr noundef nonnull align 8 dereferenceable(32) %sample_start)
  br label %if.end

if.end:                                           ; preds = %if.then, %entry
  ret void
}