; Function Attrs: mustprogress uwtable
define void @_Z28finish_processing_train_argsP19train_params_common(ptr noundef %params) local_unnamed_addr #3 {
entry:
  %escape = getelementptr inbounds nuw i8, ptr %params, i64 113
  %0 = load i8, ptr %escape, align 1
  %tobool = trunc i8 %0 to i1
  br i1 %tobool, label %if.then, label %if.end

if.then:                                          ; preds = %entry
  %sample_start = getelementptr inbounds nuw i8, ptr %params, i64 80
  tail call void @_Z15process_escapesRNSt7__cxx1112basic_stringIcSt11char_traitsIcESaIcEEE(ptr noundef nonnull align 8 dereferenceable(32) %sample_start)
  br label %if.end

if.end:                                           ; preds = %if.then, %entry
  ret void
}